target datalayout = "e-m:e-p270:32:32-p271:32:32-p272:64:64-i64:64-i128:128-f80:128-n8:16:32:64-S128"
target triple = "x86_64-pc-linux-gnu"

%struct.object_id = type { [32 x i8], i32 }
%struct.repository = type { ptr, ptr, ptr, ptr, ptr, %struct.strmap, %struct.strmap, %struct.repo_path_cache, ptr, ptr, ptr, ptr, %struct.repo_settings, ptr, ptr, ptr, ptr, ptr, ptr, i32, i32, i32, ptr, ptr, i32, i32, i8 }
%struct.strmap = type { %struct.hashmap, ptr, i8 }
%struct.hashmap = type { ptr, ptr, ptr, i32, i32, i32, i32, i8 }
%struct.repo_path_cache = type { ptr, ptr, ptr, ptr, ptr, ptr, ptr }
%struct.repo_settings = type { i32, i32, i32, i32, i32, i32, i32, i32, i32, i32, i32, i32, ptr, i32, i32, i32, i32, i32, i32, i32, i64, i64, i64 }
%struct.index_state = type { ptr, i32, i32, i32, i32, ptr, ptr, ptr, %struct.cache_time, i8, i32, %struct.hashmap, %struct.hashmap, %struct.object_id, ptr, ptr, ptr, ptr, ptr, ptr, ptr }
%struct.cache_time = type { i32, i32 }
%struct.diff_queue_struct = type { ptr, i32, i32 }
%struct.diff_filepair = type { ptr, ptr, i16, i8, i8 }
%struct.diff_filespec = type { %struct.object_id, ptr, ptr, ptr, i64, i32, i32, i16, i16, ptr }
%struct.cache_entry = type { %struct.hashmap_entry, %struct.stat_data, i32, i32, i32, i32, i32, %struct.object_id, [0 x i8] }
%struct.hashmap_entry = type { ptr, i32 }
%struct.stat_data = type { %struct.cache_time, %struct.cache_time, i32, i32, i32, i32, i32 }

@the_repository = external global ptr, align 8
@.str.59 = private unnamed_addr constant [38 x i8] c"make_cache_entry failed for path '%s'\00", align 1
@is_null_oid.null_hash = internal constant [32 x i8] zeroinitializer, align 16

; Function Attrs: inlinehint nounwind uwtable
define internal i32 @is_null_oid(ptr noundef %0) #4 {
  %2 = alloca ptr, align 8
  store ptr %0, ptr %2, align 8, !tbaa !66
  %3 = load ptr, ptr %2, align 8, !tbaa !66
  %4 = getelementptr inbounds nuw %struct.object_id, ptr %3, i32 0, i32 0
  %5 = getelementptr inbounds [32 x i8], ptr %4, i64 0, i64 0
  %6 = call i32 @memcmp(ptr noundef %5, ptr noundef @is_null_oid.null_hash, i64 noundef 32) #11
  %7 = icmp ne i32 %6, 0
  %8 = xor i1 %7, true
  %9 = zext i1 %8 to i32
  ret i32 %9
}

; Function Attrs: nounwind uwtable
define internal void @update_index_from_diff(ptr noundef %0, ptr noundef %1, ptr noundef %2) #0 {
  %4 = alloca ptr, align 8
  %5 = alloca ptr, align 8
  %6 = alloca ptr, align 8
  %7 = alloca i32, align 4
  %8 = alloca i32, align 4
  %9 = alloca i32, align 4
  %10 = alloca ptr, align 8
  %11 = alloca i32, align 4
  %12 = alloca ptr, align 8
  %13 = alloca i32, align 4
  store ptr %0, ptr %4, align 8, !tbaa !118
  store ptr %1, ptr %5, align 8, !tbaa !120
  store ptr %2, ptr %6, align 8, !tbaa !60
  call void @llvm.lifetime.start.p0(i64 4, ptr %7) #9
  call void @llvm.lifetime.start.p0(i64 4, ptr %8) #9
  %14 = load ptr, ptr %6, align 8, !tbaa !60
  %15 = load i32, ptr %14, align 4, !tbaa !4
  store i32 %15, ptr %8, align 4, !tbaa !4
  store i32 0, ptr %7, align 4, !tbaa !4
  br label %16

16:                                               ; preds = %144, %3
  %17 = load i32, ptr %7, align 4, !tbaa !4
  %18 = load ptr, ptr %4, align 8, !tbaa !118
  %19 = getelementptr inbounds nuw %struct.diff_queue_struct, ptr %18, i32 0, i32 2
  %20 = load i32, ptr %19, align 4, !tbaa !122
  %21 = icmp slt i32 %17, %20
  br i1 %21, label %22, label %147

22:                                               ; preds = %16
  call void @llvm.lifetime.start.p0(i64 4, ptr %9) #9
  call void @llvm.lifetime.start.p0(i64 8, ptr %10) #9
  %23 = load ptr, ptr %4, align 8, !tbaa !118
  %24 = getelementptr inbounds nuw %struct.diff_queue_struct, ptr %23, i32 0, i32 0
  %25 = load ptr, ptr %24, align 8, !tbaa !125
  %26 = load i32, ptr %7, align 4, !tbaa !4
  %27 = sext i32 %26 to i64
  %28 = getelementptr inbounds ptr, ptr %25, i64 %27
  %29 = load ptr, ptr %28, align 8, !tbaa !126
  %30 = getelementptr inbounds nuw %struct.diff_filepair, ptr %29, i32 0, i32 0
  %31 = load ptr, ptr %30, align 8, !tbaa !128
  store ptr %31, ptr %10, align 8, !tbaa !132
  call void @llvm.lifetime.start.p0(i64 4, ptr %11) #9
  %32 = load ptr, ptr %10, align 8, !tbaa !132
  %33 = getelementptr inbounds nuw %struct.diff_filespec, ptr %32, i32 0, i32 7
  %34 = load i16, ptr %33, align 8, !tbaa !133
  %35 = zext i16 %34 to i32
  %36 = icmp ne i32 %35, 0
  br i1 %36, label %37, label %43

37:                                               ; preds = %22
  %38 = load ptr, ptr %10, align 8, !tbaa !132
  %39 = getelementptr inbounds nuw %struct.diff_filespec, ptr %38, i32 0, i32 0
  %40 = call i32 @is_null_oid(ptr noundef %39)
  %41 = icmp ne i32 %40, 0
  %42 = xor i1 %41, true
  br label %43

43:                                               ; preds = %37, %22
  %44 = phi i1 [ false, %22 ], [ %42, %37 ]
  %45 = zext i1 %44 to i32
  store i32 %45, ptr %11, align 4, !tbaa !4
  call void @llvm.lifetime.start.p0(i64 8, ptr %12) #9
  %46 = load i32, ptr %11, align 4, !tbaa !4
  %47 = icmp ne i32 %46, 0
  br i1 %47, label %59, label %48

48:                                               ; preds = %43
  %49 = load i32, ptr %8, align 4, !tbaa !4
  %50 = icmp ne i32 %49, 0
  br i1 %50, label %59, label %51

51:                                               ; preds = %48
  %52 = load ptr, ptr @the_repository, align 8, !tbaa !13
  %53 = getelementptr inbounds nuw %struct.repository, ptr %52, i32 0, i32 15
  %54 = load ptr, ptr %53, align 8, !tbaa !58
  %55 = load ptr, ptr %10, align 8, !tbaa !132
  %56 = getelementptr inbounds nuw %struct.diff_filespec, ptr %55, i32 0, i32 1
  %57 = load ptr, ptr %56, align 8, !tbaa !136
  %58 = call i32 @remove_file_from_index(ptr noundef %54, ptr noundef %57)
  store i32 4, ptr %13, align 4
  br label %141

59:                                               ; preds = %48, %43
  %60 = load ptr, ptr @the_repository, align 8, !tbaa !13
  %61 = getelementptr inbounds nuw %struct.repository, ptr %60, i32 0, i32 15
  %62 = load ptr, ptr %61, align 8, !tbaa !58
  %63 = load ptr, ptr %10, align 8, !tbaa !132
  %64 = getelementptr inbounds nuw %struct.diff_filespec, ptr %63, i32 0, i32 7
  %65 = load i16, ptr %64, align 8, !tbaa !133
  %66 = zext i16 %65 to i32
  %67 = load ptr, ptr %10, align 8, !tbaa !132
  %68 = getelementptr inbounds nuw %struct.diff_filespec, ptr %67, i32 0, i32 0
  %69 = load ptr, ptr %10, align 8, !tbaa !132
  %70 = getelementptr inbounds nuw %struct.diff_filespec, ptr %69, i32 0, i32 1
  %71 = load ptr, ptr %70, align 8, !tbaa !136
  %72 = call ptr @make_cache_entry(ptr noundef %62, i32 noundef %66, ptr noundef %68, ptr noundef %71, i32 noundef 0, i32 noundef 0)
  store ptr %72, ptr %12, align 8, !tbaa !137
  %73 = load ptr, ptr @the_repository, align 8, !tbaa !13
  %74 = getelementptr inbounds nuw %struct.repository, ptr %73, i32 0, i32 15
  %75 = load ptr, ptr %74, align 8, !tbaa !58
  %76 = load ptr, ptr %10, align 8, !tbaa !132
  %77 = getelementptr inbounds nuw %struct.diff_filespec, ptr %76, i32 0, i32 1
  %78 = load ptr, ptr %77, align 8, !tbaa !136
  %79 = load ptr, ptr %10, align 8, !tbaa !132
  %80 = getelementptr inbounds nuw %struct.diff_filespec, ptr %79, i32 0, i32 1
  %81 = load ptr, ptr %80, align 8, !tbaa !136
  %82 = call i64 @strlen(ptr noundef %81) #11
  %83 = trunc i64 %82 to i32
  %84 = call i32 @index_name_pos(ptr noundef %75, ptr noundef %78, i32 noundef %83)
  store i32 %84, ptr %9, align 4, !tbaa !4
  %85 = load i32, ptr %9, align 4, !tbaa !4
  %86 = icmp sge i32 %85, 0
  br i1 %86, label %87, label %101

87:                                               ; preds = %59
  %88 = load ptr, ptr @the_repository, align 8, !tbaa !13
  %89 = getelementptr inbounds nuw %struct.repository, ptr %88, i32 0, i32 15
  %90 = load ptr, ptr %89, align 8, !tbaa !58
  %91 = getelementptr inbounds nuw %struct.index_state, ptr %90, i32 0, i32 0
  %92 = load ptr, ptr %91, align 8, !tbaa !138
  %93 = load i32, ptr %9, align 4, !tbaa !4
  %94 = sext i32 %93 to i64
  %95 = getelementptr inbounds ptr, ptr %92, i64 %94
  %96 = load ptr, ptr %95, align 8, !tbaa !137
  %97 = getelementptr inbounds nuw %struct.cache_entry, ptr %96, i32 0, i32 3
  %98 = load i32, ptr %97, align 8, !tbaa !4
  %99 = and i32 %98, 1073741824
  %100 = icmp ne i32 %99, 0
  br i1 %100, label %113, label %101

101:                                              ; preds = %87, %59
  %102 = load i32, ptr %9, align 4, !tbaa !4
  %103 = icmp slt i32 %102, 0
  br i1 %103, label %104, label %118

104:                                              ; preds = %101
  %105 = load ptr, ptr %10, align 8, !tbaa !132
  %106 = getelementptr inbounds nuw %struct.diff_filespec, ptr %105, i32 0, i32 1
  %107 = load ptr, ptr %106, align 8, !tbaa !136
  %108 = load ptr, ptr @the_repository, align 8, !tbaa !13
  %109 = getelementptr inbounds nuw %struct.repository, ptr %108, i32 0, i32 15
  %110 = load ptr, ptr %109, align 8, !tbaa !58
  %111 = call i32 @path_in_sparse_checkout(ptr noundef %107, ptr noundef %110)
  %112 = icmp ne i32 %111, 0
  br i1 %112, label %118, label %113

113:                                              ; preds = %104, %87
  %114 = load ptr, ptr %12, align 8, !tbaa !137
  %115 = getelementptr inbounds nuw %struct.cache_entry, ptr %114, i32 0, i32 3
  %116 = load i32, ptr %115, align 8, !tbaa !4
  %117 = or i32 %116, 1073741824
  store i32 %117, ptr %115, align 8, !tbaa !4
  br label %118

118:                                              ; preds = %113, %104, %101
  %119 = load ptr, ptr %12, align 8, !tbaa !137
  %120 = icmp ne ptr %119, null
  br i1 %120, label %126, label %121

121:                                              ; preds = %118
  %122 = call ptr @_(ptr noundef @.str.59)
  %123 = load ptr, ptr %10, align 8, !tbaa !132
  %124 = getelementptr inbounds nuw %struct.diff_filespec, ptr %123, i32 0, i32 1
  %125 = load ptr, ptr %124, align 8, !tbaa !136
  call void (ptr, ...) @die(ptr noundef %122, ptr noundef %125) #10
  unreachable

126:                                              ; preds = %118
  %127 = load i32, ptr %11, align 4, !tbaa !4
  %128 = icmp ne i32 %127, 0
  br i1 %128, label %135, label %129

129:                                              ; preds = %126
  %130 = load ptr, ptr %12, align 8, !tbaa !137
  %131 = getelementptr inbounds nuw %struct.cache_entry, ptr %130, i32 0, i32 3
  %132 = load i32, ptr %131, align 8, !tbaa !4
  %133 = or i32 %132, 536870912
  store i32 %133, ptr %131, align 8, !tbaa !4
  %134 = load ptr, ptr %12, align 8, !tbaa !137
  call void @set_object_name_for_intent_to_add_entry(ptr noundef %134)
  br label %135

135:                                              ; preds = %129, %126
  %136 = load ptr, ptr @the_repository, align 8, !tbaa !13
  %137 = getelementptr inbounds nuw %struct.repository, ptr %136, i32 0, i32 15
  %138 = load ptr, ptr %137, align 8, !tbaa !58
  %139 = load ptr, ptr %12, align 8, !tbaa !137
  %140 = call i32 @add_index_entry(ptr noundef %138, ptr noundef %139, i32 noundef 3)
  store i32 0, ptr %13, align 4
  br label %141

141:                                              ; preds = %135, %51
  call void @llvm.lifetime.end.p0(i64 8, ptr %12) #9
  call void @llvm.lifetime.end.p0(i64 4, ptr %11) #9
  call void @llvm.lifetime.end.p0(i64 8, ptr %10) #9
  call void @llvm.lifetime.end.p0(i64 4, ptr %9) #9
  %142 = load i32, ptr %13, align 4
  switch i32 %142, label %148 [
    i32 0, label %143
    i32 4, label %144
  ]

143:                                              ; preds = %141
  br label %144

144:                                              ; preds = %143, %141
  %145 = load i32, ptr %7, align 4, !tbaa !4
  %146 = add nsw i32 %145, 1
  store i32 %146, ptr %7, align 4, !tbaa !4
  br label %16, !llvm.loop !139

147:                                              ; preds = %16
  call void @llvm.lifetime.end.p0(i64 4, ptr %8) #9
  call void @llvm.lifetime.end.p0(i64 4, ptr %7) #9
  ret void

148:                                              ; preds = %141
  unreachable
}