; Function Attrs: nounwind uwtable
define internal void @update_index_from_diff(ptr noundef readonly captures(none) %0, ptr readnone captures(none) %1, ptr noundef readonly captures(none) %2) #0 {
  %4 = getelementptr inbounds nuw i8, ptr %0, i64 12
  %5 = load i32, ptr %4, align 4, !tbaa !105
  %6 = icmp sgt i32 %5, 0
  br i1 %6, label %.lr.ph, label %._crit_edge

.lr.ph:                                           ; preds = %3
  %7 = load i32, ptr %2, align 4, !tbaa !4
  %8 = icmp ne i32 %7, 0
  br label %9

9:                                                ; preds = %.lr.ph, %73
  %indvars.iv = phi i64 [ 0, %.lr.ph ], [ %indvars.iv.next, %73 ]
  %10 = load ptr, ptr %0, align 8, !tbaa !108
  %11 = getelementptr inbounds nuw ptr, ptr %10, i64 %indvars.iv
  %12 = load ptr, ptr %11, align 8, !tbaa !109
  %13 = load ptr, ptr %12, align 8, !tbaa !111
  %14 = getelementptr inbounds nuw i8, ptr %13, i64 80
  %15 = load i16, ptr %14, align 8, !tbaa !115
  %.not = icmp eq i16 %15, 0
  br i1 %.not, label %17, label %16

16:                                               ; preds = %9
  %bcmp.i = tail call i32 @bcmp(ptr noundef nonnull readonly dereferenceable(32) %13, ptr noundef nonnull dereferenceable(32) @is_null_oid.null_hash, i64 32)
  %.not.i = icmp ne i32 %bcmp.i, 0
  br label %17

17:                                               ; preds = %16, %9
  %18 = phi i1 [ false, %9 ], [ %.not.i, %16 ]
  %or.cond = select i1 %18, i1 true, i1 %8
  %19 = load ptr, ptr @the_repository, align 8, !tbaa !22
  %20 = getelementptr inbounds nuw i8, ptr %19, i64 384
  %21 = load ptr, ptr %20, align 8, !tbaa !51
  br i1 %or.cond, label %26, label %22

22:                                               ; preds = %17
  %23 = getelementptr inbounds nuw i8, ptr %13, i64 40
  %24 = load ptr, ptr %23, align 8, !tbaa !118
  %25 = tail call i32 @remove_file_from_index(ptr noundef %21, ptr noundef %24) #13
  br label %73

26:                                               ; preds = %17
  %27 = zext i16 %15 to i32
  %28 = getelementptr inbounds nuw i8, ptr %13, i64 40
  %29 = load ptr, ptr %28, align 8, !tbaa !118
  %30 = tail call ptr @make_cache_entry(ptr noundef %21, i32 noundef %27, ptr noundef nonnull %13, ptr noundef %29, i32 noundef 0, i32 noundef 0) #13
  %31 = load ptr, ptr @the_repository, align 8, !tbaa !22
  %32 = getelementptr inbounds nuw i8, ptr %31, i64 384
  %33 = load ptr, ptr %32, align 8, !tbaa !51
  %34 = load ptr, ptr %28, align 8, !tbaa !118
  %35 = tail call i64 @strlen(ptr noundef nonnull dereferenceable(1) %34) #15
  %36 = trunc i64 %35 to i32
  %37 = tail call i32 @index_name_pos(ptr noundef %33, ptr noundef nonnull %34, i32 noundef %36) #13
  %38 = icmp sgt i32 %37, -1
  br i1 %38, label %39, label %50

39:                                               ; preds = %26
  %40 = load ptr, ptr @the_repository, align 8, !tbaa !22
  %41 = getelementptr inbounds nuw i8, ptr %40, i64 384
  %42 = load ptr, ptr %41, align 8, !tbaa !51
  %43 = load ptr, ptr %42, align 8, !tbaa !119
  %44 = zext nneg i32 %37 to i64
  %45 = getelementptr inbounds nuw ptr, ptr %43, i64 %44
  %46 = load ptr, ptr %45, align 8, !tbaa !120
  %47 = getelementptr inbounds nuw i8, ptr %46, i64 56
  %48 = load i32, ptr %47, align 8, !tbaa !4
  %49 = and i32 %48, 1073741824
  %.not30 = icmp eq i32 %49, 0
  br i1 %.not30, label %59, label %.thread33

50:                                               ; preds = %26
  %51 = load ptr, ptr %28, align 8, !tbaa !118
  %52 = load ptr, ptr @the_repository, align 8, !tbaa !22
  %53 = getelementptr inbounds nuw i8, ptr %52, i64 384
  %54 = load ptr, ptr %53, align 8, !tbaa !51
  %55 = tail call i32 @path_in_sparse_checkout(ptr noundef %51, ptr noundef %54) #13
  %.not31 = icmp eq i32 %55, 0
  br i1 %.not31, label %.thread33, label %59

.thread33:                                        ; preds = %39, %50
  %56 = getelementptr inbounds nuw i8, ptr %30, i64 56
  %57 = load i32, ptr %56, align 8, !tbaa !4
  %58 = or i32 %57, 1073741824
  store i32 %58, ptr %56, align 8, !tbaa !4
  br label %63

59:                                               ; preds = %39, %50
  %.not32 = icmp eq ptr %30, null
  br i1 %.not32, label %60, label %63

60:                                               ; preds = %59
  %61 = tail call fastcc ptr @_(ptr noundef nonnull @.str.59)
  %62 = load ptr, ptr %28, align 8, !tbaa !118
  tail call void (ptr, ...) @die(ptr noundef %61, ptr noundef %62) #14
  unreachable

63:                                               ; preds = %.thread33, %59
  br i1 %18, label %68, label %64

64:                                               ; preds = %63
  %65 = getelementptr inbounds nuw i8, ptr %30, i64 56
  %66 = load i32, ptr %65, align 8, !tbaa !4
  %67 = or i32 %66, 536870912
  store i32 %67, ptr %65, align 8, !tbaa !4
  tail call void @set_object_name_for_intent_to_add_entry(ptr noundef nonnull %30) #13
  br label %68

68:                                               ; preds = %64, %63
  %69 = load ptr, ptr @the_repository, align 8, !tbaa !22
  %70 = getelementptr inbounds nuw i8, ptr %69, i64 384
  %71 = load ptr, ptr %70, align 8, !tbaa !51
  %72 = tail call i32 @add_index_entry(ptr noundef %71, ptr noundef nonnull %30, i32 noundef 3) #13
  br label %73

73:                                               ; preds = %68, %22
  %indvars.iv.next = add nuw nsw i64 %indvars.iv, 1
  %74 = load i32, ptr %4, align 4, !tbaa !105
  %75 = sext i32 %74 to i64
  %76 = icmp slt i64 %indvars.iv.next, %75
  br i1 %76, label %9, label %._crit_edge, !llvm.loop !121

._crit_edge:                                      ; preds = %73, %3
  ret void
}